target datalayout = "e-m:e-p270:32:32-p271:32:32-p272:64:64-i64:64-i128:128-f80:128-n8:16:32:64-S128"
target triple = "x86_64-pc-linux-gnu"

; Function Attrs: nounwind uwtable
define internal void @lxb_encoding_encode_utf_16_write_single(i1 noundef zeroext %0, ptr noundef %1, i32 noundef %2) #0 {
  %4 = alloca i8, align 1
  %5 = alloca ptr, align 8
  %6 = alloca i32, align 4
  %7 = zext i1 %0 to i8
  store i8 %7, ptr %4, align 1
  store ptr %1, ptr %5, align 8
  store i32 %2, ptr %6, align 4
  %8 = load i8, ptr %4, align 1
  %9 = trunc i8 %8 to i1
  br i1 %9, label %10, label %23

10:                                               ; preds = %3
  %11 = load i32, ptr %6, align 4
  %12 = lshr i32 %11, 8
  %13 = trunc i32 %12 to i8
  %14 = load ptr, ptr %5, align 8
  %15 = load ptr, ptr %14, align 8
  %16 = getelementptr inbounds i8, ptr %15, i32 1
  store ptr %16, ptr %14, align 8
  store i8 %13, ptr %15, align 1
  %17 = load i32, ptr %6, align 4
  %18 = and i32 %17, 255
  %19 = trunc i32 %18 to i8
  %20 = load ptr, ptr %5, align 8
  %21 = load ptr, ptr %20, align 8
  %22 = getelementptr inbounds i8, ptr %21, i32 1
  store ptr %22, ptr %20, align 8
  store i8 %19, ptr %21, align 1
  br label %36

23:                                               ; preds = %3
  %24 = load i32, ptr %6, align 4
  %25 = and i32 %24, 255
  %26 = trunc i32 %25 to i8
  %27 = load ptr, ptr %5, align 8
  %28 = load ptr, ptr %27, align 8
  %29 = getelementptr inbounds i8, ptr %28, i32 1
  store ptr %29, ptr %27, align 8
  store i8 %26, ptr %28, align 1
  %30 = load i32, ptr %6, align 4
  %31 = lshr i32 %30, 8
  %32 = trunc i32 %31 to i8
  %33 = load ptr, ptr %5, align 8
  %34 = load ptr, ptr %33, align 8
  %35 = getelementptr inbounds i8, ptr %34, i32 1
  store ptr %35, ptr %33, align 8
  store i8 %32, ptr %34, align 1
  br label %36

36:                                               ; preds = %23, %10
  ret void
}

; Function Attrs: nounwind uwtable
define internal signext i8 @lxb_encoding_encode_utf_16_single(ptr noundef %0, i1 noundef zeroext %1, ptr noundef %2, ptr noundef %3, i32 noundef %4) #0 {
  %6 = alloca i8, align 1
  %7 = alloca ptr, align 8
  %8 = alloca i8, align 1
  %9 = alloca ptr, align 8
  %10 = alloca ptr, align 8
  %11 = alloca i32, align 4
  store ptr %0, ptr %7, align 8
  %12 = zext i1 %1 to i8
  store i8 %12, ptr %8, align 1
  store ptr %2, ptr %9, align 8
  store ptr %3, ptr %10, align 8
  store i32 %4, ptr %11, align 4
  %13 = load ptr, ptr %9, align 8
  %14 = load ptr, ptr %13, align 8
  %15 = getelementptr inbounds i8, ptr %14, i64 2
  %16 = load ptr, ptr %10, align 8
  %17 = icmp ugt ptr %15, %16
  br i1 %17, label %18, label %19

18:                                               ; preds = %5
  store i8 -2, ptr %6, align 1
  br label %49

19:                                               ; preds = %5
  %20 = load i32, ptr %11, align 4
  %21 = icmp ult i32 %20, 65536
  br i1 %21, label %22, label %27

22:                                               ; preds = %19
  %23 = load i8, ptr %8, align 1
  %24 = trunc i8 %23 to i1
  %25 = load ptr, ptr %9, align 8
  %26 = load i32, ptr %11, align 4
  call void @lxb_encoding_encode_utf_16_write_single(i1 noundef zeroext %24, ptr noundef %25, i32 noundef %26)
  store i8 2, ptr %6, align 1
  br label %49

27:                                               ; preds = %19
  %28 = load ptr, ptr %9, align 8
  %29 = load ptr, ptr %28, align 8
  %30 = getelementptr inbounds i8, ptr %29, i64 4
  %31 = load ptr, ptr %10, align 8
  %32 = icmp ugt ptr %30, %31
  br i1 %32, label %33, label %34

33:                                               ; preds = %27
  store i8 -2, ptr %6, align 1
  br label %49

34:                                               ; preds = %27
  %35 = load i32, ptr %11, align 4
  %36 = sub i32 %35, 65536
  store i32 %36, ptr %11, align 4
  %37 = load i8, ptr %8, align 1
  %38 = trunc i8 %37 to i1
  %39 = load ptr, ptr %9, align 8
  %40 = load i32, ptr %11, align 4
  %41 = lshr i32 %40, 10
  %42 = or i32 55296, %41
  call void @lxb_encoding_encode_utf_16_write_single(i1 noundef zeroext %38, ptr noundef %39, i32 noundef %42)
  %43 = load i8, ptr %8, align 1
  %44 = trunc i8 %43 to i1
  %45 = load ptr, ptr %9, align 8
  %46 = load i32, ptr %11, align 4
  %47 = and i32 %46, 1023
  %48 = or i32 56320, %47
  call void @lxb_encoding_encode_utf_16_write_single(i1 noundef zeroext %44, ptr noundef %45, i32 noundef %48)
  store i8 4, ptr %6, align 1
  br label %49

49:                                               ; preds = %34, %33, %22, %18
  %50 = load i8, ptr %6, align 1
  ret i8 %50
}

; Function Attrs: nounwind uwtable
define hidden signext i8 @lxb_encoding_encode_utf_16le_single(ptr noundef %0, ptr noundef %1, ptr noundef %2, i32 noundef %3) #0 {
  %5 = alloca ptr, align 8
  %6 = alloca ptr, align 8
  %7 = alloca ptr, align 8
  %8 = alloca i32, align 4
  store ptr %0, ptr %5, align 8
  store ptr %1, ptr %6, align 8
  store ptr %2, ptr %7, align 8
  store i32 %3, ptr %8, align 4
  %9 = load ptr, ptr %5, align 8
  %10 = load ptr, ptr %6, align 8
  %11 = load ptr, ptr %7, align 8
  %12 = load i32, ptr %8, align 4
  %13 = call signext i8 @lxb_encoding_encode_utf_16_single(ptr noundef %9, i1 noundef zeroext false, ptr noundef %10, ptr noundef %11, i32 noundef %12)
  ret i8 %13
}